; Function Attrs: mustprogress uwtable
define noundef nonnull align 8 dereferenceable(8) ptr @_ZN32pxrInternal_v0_24__pxrReserved__lsERSoRKNS_11GfDualQuatfE(ptr noundef nonnull align 8 dereferenceable(8) %0, ptr noundef nonnull readonly align 4 captures(none) dereferenceable(32) %1) local_unnamed_addr #5 {
  %3 = alloca %"class.pxrInternal_v0_24__pxrReserved__::GfQuatf", align 8
  %4 = alloca %"class.pxrInternal_v0_24__pxrReserved__::GfQuatf", align 8
  %5 = tail call noundef nonnull align 8 dereferenceable(8) ptr @_ZStlsISt11char_traitsIcEERSt13basic_ostreamIcT_ES5_c(ptr noundef nonnull align 8 dereferenceable(8) %0, i8 noundef signext 40)
  %.sroa.01.0.copyload = load <2 x float>, ptr %1, align 4
  %.sroa.22.0..sroa_idx = getelementptr inbounds nuw i8, ptr %1, i64 8
  %.sroa.22.0.copyload = load <2 x float>, ptr %.sroa.22.0..sroa_idx, align 4
  store <2 x float> %.sroa.01.0.copyload, ptr %3, align 8
  %6 = getelementptr inbounds nuw i8, ptr %3, i64 8
  store <2 x float> %.sroa.22.0.copyload, ptr %6, align 8
  %7 = call noundef nonnull align 8 dereferenceable(8) ptr @_ZN32pxrInternal_v0_24__pxrReserved__lsERSoRKNS_7GfQuatfE(ptr noundef nonnull align 8 dereferenceable(8) %5, ptr noundef nonnull align 4 dereferenceable(16) %3)
  %8 = call noundef nonnull align 8 dereferenceable(8) ptr @_ZStlsISt11char_traitsIcEERSt13basic_ostreamIcT_ES5_PKc(ptr noundef nonnull align 8 dereferenceable(8) %7, ptr noundef nonnull @.str.4)
  %9 = getelementptr inbounds nuw i8, ptr %1, i64 16
  %.sroa.0.0.copyload = load <2 x float>, ptr %9, align 4
  %.sroa.2.0..sroa_idx = getelementptr inbounds nuw i8, ptr %1, i64 24
  %.sroa.2.0.copyload = load <2 x float>, ptr %.sroa.2.0..sroa_idx, align 4
  store <2 x float> %.sroa.0.0.copyload, ptr %4, align 8
  %10 = getelementptr inbounds nuw i8, ptr %4, i64 8
  store <2 x float> %.sroa.2.0.copyload, ptr %10, align 8
  %11 = call noundef nonnull align 8 dereferenceable(8) ptr @_ZN32pxrInternal_v0_24__pxrReserved__lsERSoRKNS_7GfQuatfE(ptr noundef nonnull align 8 dereferenceable(8) %8, ptr noundef nonnull align 4 dereferenceable(16) %4)
  %12 = call noundef nonnull align 8 dereferenceable(8) ptr @_ZStlsISt11char_traitsIcEERSt13basic_ostreamIcT_ES5_c(ptr noundef nonnull align 8 dereferenceable(8) %11, i8 noundef signext 41)
  ret ptr %12
}